target datalayout = "e-m:e-p270:32:32-p271:32:32-p272:64:64-i64:64-i128:128-f80:128-n8:16:32:64-S128"
target triple = "x86_64-pc-linux-gnu"

%"class.cv::Mat" = type { i32, i32, i32, i32, ptr, ptr, ptr, ptr, ptr, ptr, %"struct.cv::MatSize", %"struct.cv::MatStep" }
%"struct.cv::MatSize" = type { ptr }
%"struct.cv::MatStep" = type { ptr, [2 x i64] }
%"class.cv::ml::LogisticRegressionImpl" = type { %"class.cv::ml::LogisticRegression", %"class.cv::ml::LrParams", %"class.cv::Mat", %"class.std::map", %"class.std::map", %"class.cv::Mat", %"class.cv::Mat" }
%"class.cv::ml::LogisticRegression" = type { %"class.cv::ml::StatModel" }
%"class.cv::ml::StatModel" = type { %"class.cv::Algorithm" }
%"class.cv::Algorithm" = type { ptr }
%"class.cv::ml::LrParams" = type { double, i32, i32, i32, i32, %"class.cv::TermCriteria" }
%"class.cv::TermCriteria" = type { i32, i32, double }
%"class.std::map" = type { %"class.std::_Rb_tree" }
%"class.std::_Rb_tree" = type { %"struct.std::_Rb_tree<int, std::pair<const int, int>, std::_Select1st<std::pair<const int, int>>, std::less<int>>::_Rb_tree_impl" }
%"struct.std::_Rb_tree<int, std::pair<const int, int>, std::_Select1st<std::pair<const int, int>>, std::less<int>>::_Rb_tree_impl" = type { [8 x i8], %"struct.std::_Rb_tree_header" }
%"struct.std::_Rb_tree_header" = type { %"struct.std::_Rb_tree_node_base", i64 }
%"struct.std::_Rb_tree_node_base" = type { i32, ptr, ptr, ptr }

; Function Attrs: mustprogress uwtable
define hidden void @_ZN2cv2ml22LogisticRegressionImpl5clearEv(ptr noundef nonnull align 8 dereferenceable(432) %0) unnamed_addr #4 align 2 {
  %2 = alloca ptr, align 8
  store ptr %0, ptr %2, align 8, !tbaa !14
  %3 = load ptr, ptr %2, align 8
  %4 = getelementptr inbounds nuw %"class.cv::ml::LogisticRegressionImpl", ptr %3, i32 0, i32 2
  call void @_ZN2cv3Mat7releaseEv(ptr noundef nonnull align 8 dereferenceable(96) %4)
  %5 = getelementptr inbounds nuw %"class.cv::ml::LogisticRegressionImpl", ptr %3, i32 0, i32 5
  call void @_ZN2cv3Mat7releaseEv(ptr noundef nonnull align 8 dereferenceable(96) %5)
  %6 = getelementptr inbounds nuw %"class.cv::ml::LogisticRegressionImpl", ptr %3, i32 0, i32 6
  call void @_ZN2cv3Mat7releaseEv(ptr noundef nonnull align 8 dereferenceable(96) %6)
  ret void
}