; Function Attrs: mustprogress uwtable
define hidden void @_ZN2cv2ml22LogisticRegressionImpl5clearEv(ptr noundef nonnull align 8 dereferenceable(432) %0) unnamed_addr #3 align 2 {
  %2 = getelementptr inbounds nuw i8, ptr %0, i64 48
  tail call void @_ZN2cv3Mat7releaseEv(ptr noundef nonnull align 8 dereferenceable(96) %2)
  %3 = getelementptr inbounds nuw i8, ptr %0, i64 240
  tail call void @_ZN2cv3Mat7releaseEv(ptr noundef nonnull align 8 dereferenceable(96) %3)
  %4 = getelementptr inbounds nuw i8, ptr %0, i64 336
  tail call void @_ZN2cv3Mat7releaseEv(ptr noundef nonnull align 8 dereferenceable(96) %4)
  ret void
}